target datalayout = "e-m:e-p270:32:32-p271:32:32-p272:64:64-i64:64-i128:128-f80:128-n8:16:32:64-S128"
target triple = "x86_64-pc-linux-gnu"

%struct.XLogRecData = type { ptr, ptr, i32 }
%struct.registered_buffer = type { i8, i8, %struct.RelFileLocator, i32, i32, ptr, i32, ptr, ptr, [2 x %struct.XLogRecData], [8196 x i8] }
%struct.RelFileLocator = type { i32, i32, i32 }

@begininsert_called = internal global i8 0, align 1
@registered_buffers = internal global ptr null, align 8
@max_registered_block_id = internal global i32 0, align 4
@num_rdatas = internal global i32 0, align 4
@mainrdata_len = internal global i64 0, align 8
@mainrdata_head = internal global ptr null, align 8
@mainrdata_last = internal global ptr @mainrdata_head, align 8
@curinsert_flags = internal global i8 0, align 1

; Function Attrs: nounwind uwtable
define dso_local void @XLogResetInsertion() #0 {
  %1 = alloca i32, align 4
  call void @llvm.lifetime.start.p0(i64 4, ptr %1) #9
  store i32 0, ptr %1, align 4
  br label %2

2:                                                ; preds = %12, %0
  %3 = load i32, ptr %1, align 4
  %4 = load i32, ptr @max_registered_block_id, align 4
  %5 = icmp slt i32 %3, %4
  br i1 %5, label %6, label %15

6:                                                ; preds = %2
  %7 = load ptr, ptr @registered_buffers, align 8
  %8 = load i32, ptr %1, align 4
  %9 = sext i32 %8 to i64
  %10 = getelementptr inbounds %struct.registered_buffer, ptr %7, i64 %9
  %11 = getelementptr inbounds nuw %struct.registered_buffer, ptr %10, i32 0, i32 0
  store i8 0, ptr %11, align 8
  br label %12

12:                                               ; preds = %6
  %13 = load i32, ptr %1, align 4
  %14 = add i32 %13, 1
  store i32 %14, ptr %1, align 4
  br label %2, !llvm.loop !8

15:                                               ; preds = %2
  store i32 0, ptr @num_rdatas, align 4
  store i32 0, ptr @max_registered_block_id, align 4
  store i64 0, ptr @mainrdata_len, align 8
  store ptr @mainrdata_head, ptr @mainrdata_last, align 8
  store i8 0, ptr @curinsert_flags, align 1
  store i8 0, ptr @begininsert_called, align 1
  call void @llvm.lifetime.end.p0(i64 4, ptr %1) #9
  ret void
}