; Function Attrs: nofree norecurse nosync nounwind memory(readwrite, argmem: write, inaccessiblemem: none) uwtable
define dso_local void @XLogResetInsertion() local_unnamed_addr #5 {
  %1 = load i32, ptr @max_registered_block_id, align 4
  %2 = icmp sgt i32 %1, 0
  br i1 %2, label %.lr.ph, label %._crit_edge

.lr.ph:                                           ; preds = %0
  %3 = load ptr, ptr @registered_buffers, align 8
  %wide.trip.count = zext nneg i32 %1 to i64
  br label %4

4:                                                ; preds = %.lr.ph, %4
  %indvars.iv = phi i64 [ 0, %.lr.ph ], [ %indvars.iv.next, %4 ]
  %5 = getelementptr inbounds nuw %struct.registered_buffer, ptr %3, i64 %indvars.iv
  store i8 0, ptr %5, align 8
  %indvars.iv.next = add nuw nsw i64 %indvars.iv, 1
  %exitcond.not = icmp eq i64 %indvars.iv.next, %wide.trip.count
  br i1 %exitcond.not, label %._crit_edge, label %4, !llvm.loop !4

._crit_edge:                                      ; preds = %4, %0
  store i32 0, ptr @num_rdatas, align 4
  store i32 0, ptr @max_registered_block_id, align 4
  store i64 0, ptr @mainrdata_len, align 8
  store ptr @mainrdata_head, ptr @mainrdata_last, align 8
  store i8 0, ptr @curinsert_flags, align 1
  store i1 false, ptr @begininsert_called, align 1
  ret void
}